target datalayout = "e-m:e-p270:32:32-p271:32:32-p272:64:64-i64:64-i128:128-f80:128-n8:16:32:64-S128"
target triple = "x86_64-pc-linux-gnu"

%struct.FT_Vector_ = type { i64, i64 }
%struct.FT_StrokerRec_ = type { i64, i64, %struct.FT_Vector_, i64, i8, i8, i64, %struct.FT_Vector_, i64, i8, i32, i32, i32, i64, i64, [2 x %struct.FT_StrokeBorderRec_], ptr }
%struct.FT_StrokeBorderRec_ = type { i32, i32, ptr, ptr, i8, i32, ptr, i8 }

; Function Attrs: nounwind uwtable
define internal void @ft_stroke_border_reset(ptr noundef %0) #0 {
  %2 = alloca ptr, align 8
  store ptr %0, ptr %2, align 8
  %3 = load ptr, ptr %2, align 8
  %4 = getelementptr inbounds %struct.FT_StrokeBorderRec_, ptr %3, i32 0, i32 0
  store i32 0, ptr %4, align 8
  %5 = load ptr, ptr %2, align 8
  %6 = getelementptr inbounds %struct.FT_StrokeBorderRec_, ptr %5, i32 0, i32 5
  store i32 -1, ptr %6, align 4
  %7 = load ptr, ptr %2, align 8
  %8 = getelementptr inbounds %struct.FT_StrokeBorderRec_, ptr %7, i32 0, i32 7
  store i8 0, ptr %8, align 8
  ret void
}

; Function Attrs: nounwind uwtable
define void @FT_Stroker_Rewind(ptr noundef %0) #0 {
  %2 = alloca ptr, align 8
  store ptr %0, ptr %2, align 8
  %3 = load ptr, ptr %2, align 8
  %4 = icmp ne ptr %3, null
  br i1 %4, label %5, label %12

5:                                                ; preds = %1
  %6 = load ptr, ptr %2, align 8
  %7 = getelementptr inbounds %struct.FT_StrokerRec_, ptr %6, i32 0, i32 15
  %8 = getelementptr inbounds [2 x %struct.FT_StrokeBorderRec_], ptr %7, i64 0, i64 0
  call void @ft_stroke_border_reset(ptr noundef %8)
  %9 = load ptr, ptr %2, align 8
  %10 = getelementptr inbounds %struct.FT_StrokerRec_, ptr %9, i32 0, i32 15
  %11 = getelementptr inbounds [2 x %struct.FT_StrokeBorderRec_], ptr %10, i64 0, i64 1
  call void @ft_stroke_border_reset(ptr noundef %11)
  br label %12

12:                                               ; preds = %5, %1
  ret void
}