; Function Attrs: mustprogress nofree norecurse nosync nounwind willreturn memory(argmem: write) uwtable
define void @FT_Stroker_Rewind(ptr noundef writeonly %0) local_unnamed_addr #2 {
  %.not = icmp eq ptr %0, null
  br i1 %.not, label %9, label %2

2:                                                ; preds = %1
  %3 = getelementptr inbounds nuw i8, ptr %0, i64 112
  store i32 0, ptr %3, align 8
  %4 = getelementptr inbounds nuw i8, ptr %0, i64 140
  store i32 -1, ptr %4, align 4
  %5 = getelementptr inbounds nuw i8, ptr %0, i64 152
  store i8 0, ptr %5, align 8
  %6 = getelementptr inbounds nuw i8, ptr %0, i64 160
  store i32 0, ptr %6, align 8
  %7 = getelementptr inbounds nuw i8, ptr %0, i64 188
  store i32 -1, ptr %7, align 4
  %8 = getelementptr inbounds nuw i8, ptr %0, i64 200
  store i8 0, ptr %8, align 8
  br label %9

9:                                                ; preds = %2, %1
  ret void
}